; Function Attrs: mustprogress nofree norecurse nosync nounwind willreturn memory(read, inaccessiblemem: none) uwtable
define internal noundef zeroext i1 @"_ZN4llvm12function_refIFbRNS_3UseEEE11callback_fnIZNS_15OpenMPIRBuilder19createReductionsGPUERKNS6_19LocationDescriptionENS_13IRBuilderBase11InsertPointESB_NS_8ArrayRefINS6_13ReductionInfoEEEbbbNS6_18ReductionGenCBKindESt8optionalINS_3omp2GVEEjPNS_5ValueEE3$_0EEblS2_"(i64 noundef %0, ptr noundef nonnull readonly align 8 captures(none) dereferenceable(32) %1) #9 align 2 {
  %3 = inttoptr i64 %0 to ptr
  %.val = load ptr, ptr %3, align 8
  %4 = getelementptr inbounds nuw i8, ptr %1, i64 24
  %.val1 = load ptr, ptr %4, align 8
  %5 = getelementptr i8, ptr %.val1, i64 40
  %.val1.val = load ptr, ptr %5, align 8
  %6 = getelementptr i8, ptr %.val1.val, i64 72
  %.val1.val.val = load ptr, ptr %6, align 8
  %7 = icmp eq ptr %.val1.val.val, %.val
  ret i1 %7
}